target datalayout = "e-m:e-p270:32:32-p271:32:32-p272:64:64-i64:64-i128:128-f80:128-n8:16:32:64-S128"
target triple = "x86_64-pc-linux-gnu"

%"class.metaspace::MetaspaceDCmd" = type { %class.DCmdWithParser, %class.DCmdArgument, %class.DCmdArgument, %class.DCmdArgument, %class.DCmdArgument, %class.DCmdArgument, %class.DCmdArgument, %class.DCmdArgument.0, %class.DCmdArgument }
%class.DCmdWithParser = type { %class.DCmd.base, %class.DCmdParser }
%class.DCmd.base = type <{ ptr, ptr, i8 }>
%class.DCmdParser = type { ptr, ptr }
%class.DCmdArgument.0 = type { %class.GenDCmdArgument.base, ptr }
%class.GenDCmdArgument.base = type <{ ptr, ptr, ptr, ptr, ptr, ptr, i8, i8, i8 }>
%class.DCmdArgument = type { %class.GenDCmdArgument.base, i8, [4 x i8] }
%class.VM_PrintMetadata = type <{ %class.VM_Operation, ptr, i64, i32, [4 x i8] }>
%class.VM_Operation = type { ptr, ptr }
%class.DCmd = type <{ ptr, ptr, i8, [7 x i8] }>

@.str.20 = private unnamed_addr constant [8 x i8] c"dynamic\00", align 1
@.str.23 = private unnamed_addr constant [47 x i8] c"Invalid scale: \22%s\22. Will use dynamic scaling.\00", align 1
@.str.24 = private unnamed_addr constant [49 x i8] c"In basic mode, additional arguments are ignored.\00", align 1
@_ZTV16VM_PrintMetadata = external unnamed_addr constant { [12 x ptr] }, align 8
@_ZTV12VM_Operation = external unnamed_addr constant { [12 x ptr] }, align 8

; Function Attrs: mustprogress nounwind uwtable
define linkonce_odr hidden void @_ZN12VM_OperationC2Ev(ptr noundef nonnull align 8 dereferenceable(16) %0) unnamed_addr #1 comdat align 2 {
  %2 = alloca ptr, align 8
  store ptr %0, ptr %2, align 8
  %3 = load ptr, ptr %2, align 8
  store ptr getelementptr inbounds inrange(-16, 80) ({ [12 x ptr] }, ptr @_ZTV12VM_Operation, i32 0, i32 0, i32 2), ptr %3, align 8
  %4 = getelementptr inbounds %class.VM_Operation, ptr %3, i32 0, i32 1
  store ptr null, ptr %4, align 8
  ret void
}

; Function Attrs: mustprogress nounwind uwtable
define linkonce_odr hidden void @_ZN16VM_PrintMetadataC2EP12outputStreammi(ptr noundef nonnull align 8 dereferenceable(36) %0, ptr noundef %1, i64 noundef %2, i32 noundef %3) unnamed_addr #1 comdat align 2 {
  %5 = alloca ptr, align 8
  %6 = alloca ptr, align 8
  %7 = alloca i64, align 8
  %8 = alloca i32, align 4
  store ptr %0, ptr %5, align 8
  store ptr %1, ptr %6, align 8
  store i64 %2, ptr %7, align 8
  store i32 %3, ptr %8, align 4
  %9 = load ptr, ptr %5, align 8
  call void @_ZN12VM_OperationC2Ev(ptr noundef nonnull align 8 dereferenceable(16) %9)
  store ptr getelementptr inbounds inrange(-16, 80) ({ [12 x ptr] }, ptr @_ZTV16VM_PrintMetadata, i32 0, i32 0, i32 2), ptr %9, align 8
  %10 = getelementptr inbounds %class.VM_PrintMetadata, ptr %9, i32 0, i32 1
  %11 = load ptr, ptr %6, align 8
  store ptr %11, ptr %10, align 8
  %12 = getelementptr inbounds %class.VM_PrintMetadata, ptr %9, i32 0, i32 2
  %13 = load i64, ptr %7, align 8
  store i64 %13, ptr %12, align 8
  %14 = getelementptr inbounds %class.VM_PrintMetadata, ptr %9, i32 0, i32 3
  %15 = load i32, ptr %8, align 4
  store i32 %15, ptr %14, align 8
  ret void
}

; Function Attrs: mustprogress nounwind uwtable
define linkonce_odr hidden noundef zeroext i1 @_ZNK12DCmdArgumentIbE5valueEv(ptr noundef nonnull align 8 dereferenceable(52) %0) #1 comdat align 2 {
  %2 = alloca ptr, align 8
  store ptr %0, ptr %2, align 8
  %3 = load ptr, ptr %2, align 8
  %4 = getelementptr inbounds %class.DCmdArgument, ptr %3, i32 0, i32 1
  %5 = load i8, ptr %4, align 1
  %6 = trunc i8 %5 to i1
  ret i1 %6
}

; Function Attrs: mustprogress nounwind uwtable
define linkonce_odr hidden noundef ptr @_ZNK4DCmd6outputEv(ptr noundef nonnull align 8 dereferenceable(17) %0) #1 comdat align 2 {
  %2 = alloca ptr, align 8
  store ptr %0, ptr %2, align 8
  %3 = load ptr, ptr %2, align 8
  %4 = getelementptr inbounds %class.DCmd, ptr %3, i32 0, i32 1
  %5 = load ptr, ptr %4, align 8
  ret ptr %5
}

; Function Attrs: mustprogress nounwind uwtable
define linkonce_odr hidden noundef ptr @_ZNK12DCmdArgumentIPcE5valueEv(ptr noundef nonnull align 8 dereferenceable(64) %0) #1 comdat align 2 {
  %2 = alloca ptr, align 8
  store ptr %0, ptr %2, align 8
  %3 = load ptr, ptr %2, align 8
  %4 = getelementptr inbounds %class.DCmdArgument.0, ptr %3, i32 0, i32 1
  %5 = load ptr, ptr %4, align 8
  ret ptr %5
}

; Function Attrs: mustprogress nounwind uwtable
define hidden void @_ZN9metaspace13MetaspaceDCmd7executeE10DCmdSourceP10JavaThread(ptr noundef nonnull align 8 dereferenceable(496) %0, i32 noundef %1, ptr noundef %2) unnamed_addr #1 align 2 {
  %4 = alloca ptr, align 8
  %5 = alloca i32, align 4
  %6 = alloca ptr, align 8
  %7 = alloca ptr, align 8
  %8 = alloca i64, align 8
  %9 = alloca i32, align 4
  %10 = alloca %class.VM_PrintMetadata, align 8
  store ptr %0, ptr %4, align 8
  store i32 %1, ptr %5, align 4
  store ptr %2, ptr %6, align 8
  %11 = load ptr, ptr %4, align 8
  %12 = getelementptr inbounds %"class.metaspace::MetaspaceDCmd", ptr %11, i32 0, i32 7
  %13 = call noundef ptr @_ZNK12DCmdArgumentIPcE5valueEv(ptr noundef nonnull align 8 dereferenceable(64) %12)
  store ptr %13, ptr %7, align 8
  store i64 0, ptr %8, align 8
  %14 = load ptr, ptr %7, align 8
  %15 = icmp ne ptr %14, null
  br i1 %15, label %16, label %31

16:                                               ; preds = %3
  %17 = load ptr, ptr %7, align 8
  %18 = call i32 @strcasecmp(ptr noundef @.str.20, ptr noundef %17) #4
  %19 = icmp eq i32 %18, 0
  br i1 %19, label %20, label %21

20:                                               ; preds = %16
  store i64 0, ptr %8, align 8
  br label %30

21:                                               ; preds = %16
  %22 = load ptr, ptr %7, align 8
  %23 = call noundef i64 @_ZN7NMTUtil15scale_from_nameEPKc(ptr noundef %22)
  store i64 %23, ptr %8, align 8
  %24 = load i64, ptr %8, align 8
  %25 = icmp eq i64 %24, 0
  br i1 %25, label %26, label %29

26:                                               ; preds = %21
  %27 = call noundef ptr @_ZNK4DCmd6outputEv(ptr noundef nonnull align 8 dereferenceable(17) %11)
  %28 = load ptr, ptr %7, align 8
  call void (ptr, ptr, ...) @_ZN12outputStream8print_crEPKcz(ptr noundef nonnull align 8 dereferenceable(56) %27, ptr noundef @.str.23, ptr noundef %28)
  br label %29

29:                                               ; preds = %26, %21
  br label %30

30:                                               ; preds = %29, %20
  br label %31

31:                                               ; preds = %30, %3
  %32 = getelementptr inbounds %"class.metaspace::MetaspaceDCmd", ptr %11, i32 0, i32 1
  %33 = call noundef zeroext i1 @_ZNK12DCmdArgumentIbE5valueEv(ptr noundef nonnull align 8 dereferenceable(52) %32)
  %34 = zext i1 %33 to i32
  %35 = icmp eq i32 %34, 1
  br i1 %35, label %36, label %53

36:                                               ; preds = %31
  %37 = getelementptr inbounds %"class.metaspace::MetaspaceDCmd", ptr %11, i32 0, i32 2
  %38 = call noundef zeroext i1 @_ZNK12DCmdArgumentIbE5valueEv(ptr noundef nonnull align 8 dereferenceable(52) %37)
  br i1 %38, label %48, label %39

39:                                               ; preds = %36
  %40 = getelementptr inbounds %"class.metaspace::MetaspaceDCmd", ptr %11, i32 0, i32 4
  %41 = call noundef zeroext i1 @_ZNK12DCmdArgumentIbE5valueEv(ptr noundef nonnull align 8 dereferenceable(52) %40)
  br i1 %41, label %48, label %42

42:                                               ; preds = %39
  %43 = getelementptr inbounds %"class.metaspace::MetaspaceDCmd", ptr %11, i32 0, i32 3
  %44 = call noundef zeroext i1 @_ZNK12DCmdArgumentIbE5valueEv(ptr noundef nonnull align 8 dereferenceable(52) %43)
  br i1 %44, label %48, label %45

45:                                               ; preds = %42
  %46 = getelementptr inbounds %"class.metaspace::MetaspaceDCmd", ptr %11, i32 0, i32 5
  %47 = call noundef zeroext i1 @_ZNK12DCmdArgumentIbE5valueEv(ptr noundef nonnull align 8 dereferenceable(52) %46)
  br i1 %47, label %48, label %50

48:                                               ; preds = %45, %42, %39, %36
  %49 = call noundef ptr @_ZNK4DCmd6outputEv(ptr noundef nonnull align 8 dereferenceable(17) %11)
  call void (ptr, ptr, ...) @_ZN12outputStream8print_crEPKcz(ptr noundef nonnull align 8 dereferenceable(56) %49, ptr noundef @.str.24)
  br label %50

50:                                               ; preds = %48, %45
  %51 = call noundef ptr @_ZNK4DCmd6outputEv(ptr noundef nonnull align 8 dereferenceable(17) %11)
  %52 = load i64, ptr %8, align 8
  call void @_ZN14MetaspaceUtils18print_basic_reportEP12outputStreamm(ptr noundef %51, i64 noundef %52)
  br label %93

53:                                               ; preds = %31
  store i32 0, ptr %9, align 4
  %54 = getelementptr inbounds %"class.metaspace::MetaspaceDCmd", ptr %11, i32 0, i32 2
  %55 = call noundef zeroext i1 @_ZNK12DCmdArgumentIbE5valueEv(ptr noundef nonnull align 8 dereferenceable(52) %54)
  br i1 %55, label %56, label %59

56:                                               ; preds = %53
  %57 = load i32, ptr %9, align 4
  %58 = or i32 %57, 1
  store i32 %58, ptr %9, align 4
  br label %59

59:                                               ; preds = %56, %53
  %60 = getelementptr inbounds %"class.metaspace::MetaspaceDCmd", ptr %11, i32 0, i32 8
  %61 = call noundef zeroext i1 @_ZNK12DCmdArgumentIbE5valueEv(ptr noundef nonnull align 8 dereferenceable(52) %60)
  br i1 %61, label %62, label %65

62:                                               ; preds = %59
  %63 = load i32, ptr %9, align 4
  %64 = or i32 %63, 16
  store i32 %64, ptr %9, align 4
  br label %65

65:                                               ; preds = %62, %59
  %66 = getelementptr inbounds %"class.metaspace::MetaspaceDCmd", ptr %11, i32 0, i32 4
  %67 = call noundef zeroext i1 @_ZNK12DCmdArgumentIbE5valueEv(ptr noundef nonnull align 8 dereferenceable(52) %66)
  br i1 %67, label %68, label %71

68:                                               ; preds = %65
  %69 = load i32, ptr %9, align 4
  %70 = or i32 %69, 2
  store i32 %70, ptr %9, align 4
  br label %71

71:                                               ; preds = %68, %65
  %72 = getelementptr inbounds %"class.metaspace::MetaspaceDCmd", ptr %11, i32 0, i32 3
  %73 = call noundef zeroext i1 @_ZNK12DCmdArgumentIbE5valueEv(ptr noundef nonnull align 8 dereferenceable(52) %72)
  br i1 %73, label %74, label %77

74:                                               ; preds = %71
  %75 = load i32, ptr %9, align 4
  %76 = or i32 %75, 4
  store i32 %76, ptr %9, align 4
  br label %77

77:                                               ; preds = %74, %71
  %78 = getelementptr inbounds %"class.metaspace::MetaspaceDCmd", ptr %11, i32 0, i32 5
  %79 = call noundef zeroext i1 @_ZNK12DCmdArgumentIbE5valueEv(ptr noundef nonnull align 8 dereferenceable(52) %78)
  br i1 %79, label %80, label %83

80:                                               ; preds = %77
  %81 = load i32, ptr %9, align 4
  %82 = or i32 %81, 8
  store i32 %82, ptr %9, align 4
  br label %83

83:                                               ; preds = %80, %77
  %84 = getelementptr inbounds %"class.metaspace::MetaspaceDCmd", ptr %11, i32 0, i32 6
  %85 = call noundef zeroext i1 @_ZNK12DCmdArgumentIbE5valueEv(ptr noundef nonnull align 8 dereferenceable(52) %84)
  br i1 %85, label %86, label %89

86:                                               ; preds = %83
  %87 = load i32, ptr %9, align 4
  %88 = or i32 %87, 32
  store i32 %88, ptr %9, align 4
  br label %89

89:                                               ; preds = %86, %83
  %90 = call noundef ptr @_ZNK4DCmd6outputEv(ptr noundef nonnull align 8 dereferenceable(17) %11)
  %91 = load i64, ptr %8, align 8
  %92 = load i32, ptr %9, align 4
  call void @_ZN16VM_PrintMetadataC2EP12outputStreammi(ptr noundef nonnull align 8 dereferenceable(36) %10, ptr noundef %90, i64 noundef %91, i32 noundef %92)
  call void @_ZN8VMThread7executeEP12VM_Operation(ptr noundef %10)
  br label %93

93:                                               ; preds = %89, %50
  ret void
}