; Function Attrs: mustprogress nounwind uwtable
define hidden void @_ZN9metaspace13MetaspaceDCmd7executeE10DCmdSourceP10JavaThread(ptr nocapture noundef nonnull readonly align 8 dereferenceable(496) %0, i32 %1, ptr nocapture readnone %2) unnamed_addr #0 align 2 {
  %4 = alloca %class.VM_PrintMetadata, align 8
  %5 = getelementptr inbounds i8, ptr %0, i64 432
  %6 = load ptr, ptr %5, align 8
  %.not = icmp eq ptr %6, null
  br i1 %.not, label %16, label %7

7:                                                ; preds = %3
  %8 = tail call i32 @strcasecmp(ptr noundef nonnull @.str.20, ptr noundef nonnull %6) #5
  %9 = icmp eq i32 %8, 0
  br i1 %9, label %16, label %10

10:                                               ; preds = %7
  %11 = tail call noundef i64 @_ZN7NMTUtil15scale_from_nameEPKc(ptr noundef nonnull %6) #4
  %12 = icmp eq i64 %11, 0
  br i1 %12, label %13, label %16

13:                                               ; preds = %10
  %14 = getelementptr inbounds i8, ptr %0, i64 8
  %15 = load ptr, ptr %14, align 8
  tail call void (ptr, ptr, ...) @_ZN12outputStream8print_crEPKcz(ptr noundef nonnull align 8 dereferenceable(56) %15, ptr noundef nonnull @.str.23, ptr noundef nonnull %6) #4
  br label %16

16:                                               ; preds = %7, %13, %10, %3
  %.014 = phi i64 [ 0, %13 ], [ %11, %10 ], [ 0, %3 ], [ 0, %7 ]
  %17 = getelementptr inbounds i8, ptr %0, i64 91
  %18 = load i8, ptr %17, align 1
  %19 = trunc i8 %18 to i1
  %20 = getelementptr inbounds i8, ptr %0, i64 147
  %21 = load i8, ptr %20, align 1
  br i1 %19, label %22, label %42

22:                                               ; preds = %16
  %23 = trunc i8 %21 to i1
  br i1 %23, label %36, label %24

24:                                               ; preds = %22
  %25 = getelementptr inbounds i8, ptr %0, i64 259
  %26 = load i8, ptr %25, align 1
  %27 = trunc i8 %26 to i1
  br i1 %27, label %36, label %28

28:                                               ; preds = %24
  %29 = getelementptr inbounds i8, ptr %0, i64 203
  %30 = load i8, ptr %29, align 1
  %31 = trunc i8 %30 to i1
  br i1 %31, label %36, label %32

32:                                               ; preds = %28
  %33 = getelementptr inbounds i8, ptr %0, i64 315
  %34 = load i8, ptr %33, align 1
  %35 = trunc i8 %34 to i1
  br i1 %35, label %36, label %39

36:                                               ; preds = %32, %28, %24, %22
  %37 = getelementptr inbounds i8, ptr %0, i64 8
  %38 = load ptr, ptr %37, align 8
  tail call void (ptr, ptr, ...) @_ZN12outputStream8print_crEPKcz(ptr noundef nonnull align 8 dereferenceable(56) %38, ptr noundef nonnull @.str.24) #4
  br label %39

39:                                               ; preds = %36, %32
  %40 = getelementptr inbounds i8, ptr %0, i64 8
  %41 = load ptr, ptr %40, align 8
  tail call void @_ZN14MetaspaceUtils18print_basic_reportEP12outputStreamm(ptr noundef %41, i64 noundef %.014) #4
  br label %70

42:                                               ; preds = %16
  %43 = and i8 %21, 1
  %spec.select = zext nneg i8 %43 to i32
  %44 = getelementptr inbounds i8, ptr %0, i64 491
  %45 = load i8, ptr %44, align 1
  %46 = trunc i8 %45 to i1
  %47 = or disjoint i32 %spec.select, 16
  %.1 = select i1 %46, i32 %47, i32 %spec.select
  %48 = getelementptr inbounds i8, ptr %0, i64 259
  %49 = load i8, ptr %48, align 1
  %50 = trunc i8 %49 to i1
  %51 = or disjoint i32 %.1, 2
  %.2 = select i1 %50, i32 %51, i32 %.1
  %52 = getelementptr inbounds i8, ptr %0, i64 203
  %53 = load i8, ptr %52, align 1
  %54 = trunc i8 %53 to i1
  %55 = or i32 %.2, 4
  %.3 = select i1 %54, i32 %55, i32 %.2
  %56 = getelementptr inbounds i8, ptr %0, i64 315
  %57 = load i8, ptr %56, align 1
  %58 = trunc i8 %57 to i1
  %59 = or i32 %.3, 8
  %.4 = select i1 %58, i32 %59, i32 %.3
  %60 = getelementptr inbounds i8, ptr %0, i64 371
  %61 = load i8, ptr %60, align 1
  %62 = trunc i8 %61 to i1
  %63 = or i32 %.4, 32
  %.5 = select i1 %62, i32 %63, i32 %.4
  %64 = getelementptr inbounds i8, ptr %0, i64 8
  %65 = load ptr, ptr %64, align 8
  %66 = getelementptr inbounds i8, ptr %4, i64 8
  store ptr null, ptr %66, align 8
  store ptr getelementptr inbounds inrange(-16, 80) (i8, ptr @_ZTV16VM_PrintMetadata, i64 16), ptr %4, align 8
  %67 = getelementptr inbounds i8, ptr %4, i64 16
  store ptr %65, ptr %67, align 8
  %68 = getelementptr inbounds i8, ptr %4, i64 24
  store i64 %.014, ptr %68, align 8
  %69 = getelementptr inbounds i8, ptr %4, i64 32
  store i32 %.5, ptr %69, align 8
  call void @_ZN8VMThread7executeEP12VM_Operation(ptr noundef nonnull %4) #4
  br label %70

70:                                               ; preds = %42, %39
  ret void
}